Certificate:
    Data:
        Version: 3 (0x2)
        Serial Number: 4097 (0x1001)
    Signature Algorithm: ecdsa-with-SHA256
        Issuer: CN=ecc-3-ca
        Validity
            Not Before: Jun 25 02:11:20 2018 GMT
            Not After : Jun 22 02:11:20 2028 GMT
        Subject: CN=ecc-3-leaf
        Subject Public Key Info:
            Public Key Algorithm: id-ecPublicKey
                Public-Key: (256 bit)
                pub:
                    04:bd:3b:79:0a:40:63:d5:a3:e7:37:34:15:32:85:
                    2a:bb:12:13:8e:a0:0e:db:a1:15:44:c5:3f:84:e9:
                    73:b5:f1:a6:f1:53:54:ae:76:f4:3c:56:35:58:9d:
                    d9:5c:7f:ce:81:ae:3e:29:3c:a3:12:f5:68:40:76:
                    38:d7:68:f6:33
                ASN1 OID: prime256v1
                NIST CURVE: P-256
        X509v3 extensions:
            X509v3 Basic Constraints: 
                CA:FALSE
            X509v3 Subject Key Identifier: 
                51:9E:FE:D6:00:24:D0:A8:FE:24:B1:2F:AC:29:34:D5:AF:84:AF:31
            X509v3 Authority Key Identifier: 
                keyid:05:87:0F:12:27:BF:76:AC:50:FC:14:82:1A:0E:3D:46:12:52:41:31

    Signature Algorithm: ecdsa-with-SHA256
         30:45:02:21:00:eb:ac:f4:33:27:e8:43:fc:1f:41:3b:b8:c5:
         71:69:d6:ce:5c:6a:38:ff:58:04:6e:fe:8d:aa:a8:f7:75:5a:
         94:02:20:0c:10:fe:72:ab:f7:b8:00:ed:de:00:05:7f:d3:9a:
         8f:89:87:31:94:47:ba:09:5d:34:dc:00:2e:7e:80:78:9d
-----BEGIN CERTIFICATE-----
MIIBZTCCAQugAwIBAgICEAEwCgYIKoZIzj0EAwIwEzERMA8GA1UEAwwIZWNjLTMt
Y2EwHhcNMTgwNjI1MDIxMTIwWhcNMjgwNjIyMDIxMTIwWjAVMRMwEQYDVQQDDApl
Y2MtMy1sZWFmMFkwEwYHKoZIzj0CAQYIKoZIzj0DAQcDQgAEvTt5CkBj1aPnNzQV
MoUquxITjqAO26EVRMU/hOlztfGm8VNUrnb0PFY1WJ3ZXH/Oga4+KTyjEvVoQHY4
12j2M6NNMEswCQYDVR0TBAIwADAdBgNVHQ4EFgQUUZ7+1gAk0Kj+JLEvrCk01a+E
rzEwHwYDVR0jBBgwFoAUBYcPEie/dqxQ/BSCGg49RhJSQTEwCgYIKoZIzj0EAwID
SAAwRQIhAOus9DMn6EP8H0E7uMVxadbOXGo4/1gEbv6Nqqj3dVqUAiAMEP5yq/e4
AO3eAAV/05qPiYcxlEe6CV003AAufoB4nQ==
-----END CERTIFICATE-----
