Certificate:
    Data:
        Version: 3 (0x2)
        Serial Number: 4097 (0x1001)
    Signature Algorithm: ecdsa-with-SHA256
        Issuer: CN=ecc-3-ca
        Validity
            Not Before: Jun 19 05:54:16 2017 GMT
            Not After : Jun 17 05:54:16 2027 GMT
        Subject: CN=ecc-3-leaf
        Subject Public Key Info:
            Public Key Algorithm: id-ecPublicKey
                Public-Key: (256 bit)
                pub:
                    04:90:e4:28:ec:c1:2f:f6:39:94:ae:d8:29:d0:fe:
                    e9:81:a3:30:7e:29:45:6b:71:af:f2:20:1e:92:1a:
                    f0:a9:6c:bc:86:c6:d2:b8:42:1c:49:80:98:91:e4:
                    a6:08:68:4f:7a:fd:6e:f9:dd:e8:46:6d:ca:21:06:
                    a5:16:33:e6:19
                ASN1 OID: prime256v1
                NIST CURVE: P-256
        X509v3 extensions:
            X509v3 Basic Constraints: 
                CA:FALSE
            X509v3 Subject Key Identifier: 
                E1:12:31:5D:A4:2A:C8:8D:B2:45:5B:D3:2F:28:B0:72:4E:8B:E5:07
            X509v3 Authority Key Identifier: 
                keyid:56:97:4A:CA:89:49:93:EB:FA:D9:8B:27:F0:AC:3F:02:18:5B:9E:EC

    Signature Algorithm: ecdsa-with-SHA256
         30:45:02:21:00:b6:85:2c:df:3a:f1:a3:e0:1d:37:c7:d8:61:
         6e:0c:c1:d9:8f:c6:64:ec:0b:9f:ce:84:a1:4a:cc:bd:ca:fd:
         1d:02:20:69:74:24:e7:a4:a0:eb:0a:ea:a8:e0:f5:c1:e0:78:
         61:de:c8:82:2e:0f:a2:09:f6:5e:69:e7:68:8e:d9:56:29
-----BEGIN CERTIFICATE-----
MIIBZTCCAQugAwIBAgICEAEwCgYIKoZIzj0EAwIwEzERMA8GA1UEAwwIZWNjLTMt
Y2EwHhcNMTcwNjE5MDU1NDE2WhcNMjcwNjE3MDU1NDE2WjAVMRMwEQYDVQQDDApl
Y2MtMy1sZWFmMFkwEwYHKoZIzj0CAQYIKoZIzj0DAQcDQgAEkOQo7MEv9jmUrtgp
0P7pgaMwfilFa3Gv8iAekhrwqWy8hsbSuEIcSYCYkeSmCGhPev1u+d3oRm3KIQal
FjPmGaNNMEswCQYDVR0TBAIwADAdBgNVHQ4EFgQU4RIxXaQqyI2yRVvTLyiwck6L
5QcwHwYDVR0jBBgwFoAUVpdKyolJk+v62Ysn8Kw/AhhbnuwwCgYIKoZIzj0EAwID
SAAwRQIhALaFLN868aPgHTfH2GFuDMHZj8Zk7AufzoShSsy9yv0dAiBpdCTnpKDr
Cuqo4PXB4Hhh3siCLg+iCfZeaedojtlWKQ==
-----END CERTIFICATE-----
Certificate:
    Data:
        Version: 3 (0x2)
        Serial Number: 4096 (0x1000)
    Signature Algorithm: ecdsa-with-SHA256
        Issuer: CN=ecc-3-root
        Validity
            Not Before: Jun 19 05:54:16 2017 GMT
            Not After : Jun 17 05:54:16 2027 GMT
        Subject: CN=ecc-3-ca
        Subject Public Key Info:
            Public Key Algorithm: id-ecPublicKey
                Public-Key: (256 bit)
                pub:
                    04:6a:59:73:9d:90:22:61:88:83:e7:41:0b:3e:12:
                    42:7f:ed:e2:48:0a:c8:fd:33:c4:24:42:fe:b0:de:
                    1c:0a:35:fa:80:13:6a:8e:17:94:48:e1:50:0c:65:
                    88:d3:65:b4:eb:0a:ee:66:13:2b:d8:d1:21:d0:60:
                    19:ed:15:35:a2
                ASN1 OID: prime256v1
                NIST CURVE: P-256
        X509v3 extensions:
            X509v3 Subject Key Identifier: 
                56:97:4A:CA:89:49:93:EB:FA:D9:8B:27:F0:AC:3F:02:18:5B:9E:EC
            X509v3 Authority Key Identifier: 
                keyid:22:A7:EE:D4:06:BB:8C:B1:42:00:35:E3:D6:CB:FA:60:4A:63:1C:BB
                DirName:/CN=ecc-3-root
                serial:F7:F4:16:5B:3E:0E:9F:61

            X509v3 Basic Constraints: 
                CA:TRUE
            X509v3 Key Usage: 
                Digital Signature, Non Repudiation, Certificate Sign
            X509v3 Extended Key Usage: 
                TLS Web Server Authentication
    Signature Algorithm: ecdsa-with-SHA256
         30:44:02:20:41:00:84:12:c1:06:2b:de:0c:7f:64:b9:32:f2:
         93:cb:dc:58:62:0c:69:9f:2e:8a:aa:7a:3c:ad:37:ea:3b:37:
         02:20:79:4d:c8:9e:ee:40:fc:f9:2b:13:45:2e:e4:1d:dc:64:
         42:b4:29:b3:12:c9:d5:79:ff:d0:13:e4:2d:86:e1:1d
-----BEGIN CERTIFICATE-----
MIIBsTCCAVigAwIBAgICEAAwCgYIKoZIzj0EAwIwFTETMBEGA1UEAwwKZWNjLTMt
cm9vdDAeFw0xNzA2MTkwNTU0MTZaFw0yNzA2MTcwNTU0MTZaMBMxETAPBgNVBAMM
CGVjYy0zLWNhMFkwEwYHKoZIzj0CAQYIKoZIzj0DAQcDQgAEallznZAiYYiD50EL
PhJCf+3iSArI/TPEJEL+sN4cCjX6gBNqjheUSOFQDGWI02W06wruZhMr2NEh0GAZ
7RU1oqOBmTCBljAdBgNVHQ4EFgQUVpdKyolJk+v62Ysn8Kw/AhhbnuwwRQYDVR0j
BD4wPIAUIqfu1Aa7jLFCADXj1sv6YEpjHLuhGaQXMBUxEzARBgNVBAMMCmVjYy0z
LXJvb3SCCQD39BZbPg6fYTAMBgNVHRMEBTADAQH/MAsGA1UdDwQEAwICxDATBgNV
HSUEDDAKBggrBgEFBQcDATAKBggqhkjOPQQDAgNHADBEAiBBAIQSwQYr3gx/ZLky
8pPL3FhiDGmfLoqqejytN+o7NwIgeU3Inu5A/PkrE0Uu5B3cZEK0KbMSydV5/9AT
5C2G4R0=
-----END CERTIFICATE-----
