Certificate:
    Data:
        Version: 3 (0x2)
        Serial Number: 4096 (0x1000)
    Signature Algorithm: ecdsa-with-SHA256
        Issuer: CN=ecc-3-root
        Validity
            Not Before: Jun 19 05:54:16 2017 GMT
            Not After : Jun 17 05:54:16 2027 GMT
        Subject: CN=ecc-3-ca
        Subject Public Key Info:
            Public Key Algorithm: id-ecPublicKey
                Public-Key: (256 bit)
                pub:
                    04:6a:59:73:9d:90:22:61:88:83:e7:41:0b:3e:12:
                    42:7f:ed:e2:48:0a:c8:fd:33:c4:24:42:fe:b0:de:
                    1c:0a:35:fa:80:13:6a:8e:17:94:48:e1:50:0c:65:
                    88:d3:65:b4:eb:0a:ee:66:13:2b:d8:d1:21:d0:60:
                    19:ed:15:35:a2
                ASN1 OID: prime256v1
                NIST CURVE: P-256
        X509v3 extensions:
            X509v3 Subject Key Identifier: 
                56:97:4A:CA:89:49:93:EB:FA:D9:8B:27:F0:AC:3F:02:18:5B:9E:EC
            X509v3 Authority Key Identifier: 
                keyid:22:A7:EE:D4:06:BB:8C:B1:42:00:35:E3:D6:CB:FA:60:4A:63:1C:BB
                DirName:/CN=ecc-3-root
                serial:F7:F4:16:5B:3E:0E:9F:61

            X509v3 Basic Constraints: 
                CA:TRUE
            X509v3 Key Usage: 
                Digital Signature, Non Repudiation, Certificate Sign
            X509v3 Extended Key Usage: 
                TLS Web Server Authentication
    Signature Algorithm: ecdsa-with-SHA256
         30:44:02:20:41:00:84:12:c1:06:2b:de:0c:7f:64:b9:32:f2:
         93:cb:dc:58:62:0c:69:9f:2e:8a:aa:7a:3c:ad:37:ea:3b:37:
         02:20:79:4d:c8:9e:ee:40:fc:f9:2b:13:45:2e:e4:1d:dc:64:
         42:b4:29:b3:12:c9:d5:79:ff:d0:13:e4:2d:86:e1:1d
-----BEGIN CERTIFICATE-----
MIIBsTCCAVigAwIBAgICEAAwCgYIKoZIzj0EAwIwFTETMBEGA1UEAwwKZWNjLTMt
cm9vdDAeFw0xNzA2MTkwNTU0MTZaFw0yNzA2MTcwNTU0MTZaMBMxETAPBgNVBAMM
CGVjYy0zLWNhMFkwEwYHKoZIzj0CAQYIKoZIzj0DAQcDQgAEallznZAiYYiD50EL
PhJCf+3iSArI/TPEJEL+sN4cCjX6gBNqjheUSOFQDGWI02W06wruZhMr2NEh0GAZ
7RU1oqOBmTCBljAdBgNVHQ4EFgQUVpdKyolJk+v62Ysn8Kw/AhhbnuwwRQYDVR0j
BD4wPIAUIqfu1Aa7jLFCADXj1sv6YEpjHLuhGaQXMBUxEzARBgNVBAMMCmVjYy0z
LXJvb3SCCQD39BZbPg6fYTAMBgNVHRMEBTADAQH/MAsGA1UdDwQEAwICxDATBgNV
HSUEDDAKBggrBgEFBQcDATAKBggqhkjOPQQDAgNHADBEAiBBAIQSwQYr3gx/ZLky
8pPL3FhiDGmfLoqqejytN+o7NwIgeU3Inu5A/PkrE0Uu5B3cZEK0KbMSydV5/9AT
5C2G4R0=
-----END CERTIFICATE-----
