Certificate:
    Data:
        Version: 3 (0x2)
        Serial Number: 4097 (0x1001)
    Signature Algorithm: ecdsa-with-SHA256
        Issuer: CN=ecc-3-ca
        Validity
            Not Before: Jun 25 02:11:20 2018 GMT
            Not After : Jun 22 02:11:20 2028 GMT
        Subject: CN=ecc-3-leaf
        Subject Public Key Info:
            Public Key Algorithm: id-ecPublicKey
                Public-Key: (256 bit)
                pub:
                    04:bd:3b:79:0a:40:63:d5:a3:e7:37:34:15:32:85:
                    2a:bb:12:13:8e:a0:0e:db:a1:15:44:c5:3f:84:e9:
                    73:b5:f1:a6:f1:53:54:ae:76:f4:3c:56:35:58:9d:
                    d9:5c:7f:ce:81:ae:3e:29:3c:a3:12:f5:68:40:76:
                    38:d7:68:f6:33
                ASN1 OID: prime256v1
                NIST CURVE: P-256
        X509v3 extensions:
            X509v3 Basic Constraints: 
                CA:FALSE
            X509v3 Subject Key Identifier: 
                51:9E:FE:D6:00:24:D0:A8:FE:24:B1:2F:AC:29:34:D5:AF:84:AF:31
            X509v3 Authority Key Identifier: 
                keyid:05:87:0F:12:27:BF:76:AC:50:FC:14:82:1A:0E:3D:46:12:52:41:31

    Signature Algorithm: ecdsa-with-SHA256
         30:45:02:21:00:eb:ac:f4:33:27:e8:43:fc:1f:41:3b:b8:c5:
         71:69:d6:ce:5c:6a:38:ff:58:04:6e:fe:8d:aa:a8:f7:75:5a:
         94:02:20:0c:10:fe:72:ab:f7:b8:00:ed:de:00:05:7f:d3:9a:
         8f:89:87:31:94:47:ba:09:5d:34:dc:00:2e:7e:80:78:9d
-----BEGIN CERTIFICATE-----
MIIBZTCCAQugAwIBAgICEAEwCgYIKoZIzj0EAwIwEzERMA8GA1UEAwwIZWNjLTMt
Y2EwHhcNMTgwNjI1MDIxMTIwWhcNMjgwNjIyMDIxMTIwWjAVMRMwEQYDVQQDDApl
Y2MtMy1sZWFmMFkwEwYHKoZIzj0CAQYIKoZIzj0DAQcDQgAEvTt5CkBj1aPnNzQV
MoUquxITjqAO26EVRMU/hOlztfGm8VNUrnb0PFY1WJ3ZXH/Oga4+KTyjEvVoQHY4
12j2M6NNMEswCQYDVR0TBAIwADAdBgNVHQ4EFgQUUZ7+1gAk0Kj+JLEvrCk01a+E
rzEwHwYDVR0jBBgwFoAUBYcPEie/dqxQ/BSCGg49RhJSQTEwCgYIKoZIzj0EAwID
SAAwRQIhAOus9DMn6EP8H0E7uMVxadbOXGo4/1gEbv6Nqqj3dVqUAiAMEP5yq/e4
AO3eAAV/05qPiYcxlEe6CV003AAufoB4nQ==
-----END CERTIFICATE-----
Certificate:
    Data:
        Version: 3 (0x2)
        Serial Number: 4096 (0x1000)
    Signature Algorithm: ecdsa-with-SHA256
        Issuer: CN=ecc-3-root
        Validity
            Not Before: Jun 25 02:11:20 2018 GMT
            Not After : Jun 22 02:11:20 2028 GMT
        Subject: CN=ecc-3-ca
        Subject Public Key Info:
            Public Key Algorithm: id-ecPublicKey
                Public-Key: (256 bit)
                pub:
                    04:9f:2b:64:2d:bc:dd:0e:3d:80:a1:90:fc:7a:d3:
                    22:5c:06:3d:81:36:e3:ad:dd:43:f3:ab:82:f7:55:
                    77:d2:05:93:8f:22:29:84:0a:f3:5a:2e:e2:b3:b2:
                    c4:5d:cf:ee:c8:cd:e0:2b:f0:77:41:64:0b:c2:e4:
                    7b:7b:c0:d7:7d
                ASN1 OID: prime256v1
                NIST CURVE: P-256
        X509v3 extensions:
            X509v3 Subject Key Identifier: 
                05:87:0F:12:27:BF:76:AC:50:FC:14:82:1A:0E:3D:46:12:52:41:31
            X509v3 Authority Key Identifier: 
                keyid:0F:80:D3:66:B1:49:25:2C:D9:45:C3:4C:68:47:9A:12:45:E0:7B:24
                DirName:/CN=ecc-3-root
                serial:86:3F:64:15:0F:97:5A:E8

            X509v3 Basic Constraints: 
                CA:TRUE
            X509v3 Key Usage: 
                Digital Signature, Non Repudiation, Certificate Sign
            X509v3 Extended Key Usage: 
                TLS Web Server Authentication
    Signature Algorithm: ecdsa-with-SHA256
         30:44:02:20:68:ac:9a:7e:49:dc:18:5a:30:71:52:da:35:4f:
         76:6f:91:8c:e9:fb:8c:81:32:2f:5d:76:df:8d:92:48:cd:19:
         02:20:13:f3:b8:37:cd:7b:22:af:37:e7:92:d9:ce:43:4a:59:
         c4:93:c1:6a:87:fb:41:ca:f8:fe:35:1f:86:42:f7:0f
-----BEGIN CERTIFICATE-----
MIIBsTCCAVigAwIBAgICEAAwCgYIKoZIzj0EAwIwFTETMBEGA1UEAwwKZWNjLTMt
cm9vdDAeFw0xODA2MjUwMjExMjBaFw0yODA2MjIwMjExMjBaMBMxETAPBgNVBAMM
CGVjYy0zLWNhMFkwEwYHKoZIzj0CAQYIKoZIzj0DAQcDQgAEnytkLbzdDj2AoZD8
etMiXAY9gTbjrd1D86uC91V30gWTjyIphArzWi7is7LEXc/uyM3gK/B3QWQLwuR7
e8DXfaOBmTCBljAdBgNVHQ4EFgQUBYcPEie/dqxQ/BSCGg49RhJSQTEwRQYDVR0j
BD4wPIAUD4DTZrFJJSzZRcNMaEeaEkXgeyShGaQXMBUxEzARBgNVBAMMCmVjYy0z
LXJvb3SCCQCGP2QVD5da6DAMBgNVHRMEBTADAQH/MAsGA1UdDwQEAwICxDATBgNV
HSUEDDAKBggrBgEFBQcDATAKBggqhkjOPQQDAgNHADBEAiBorJp+SdwYWjBxUto1
T3ZvkYzp+4yBMi9ddt+NkkjNGQIgE/O4N817Iq8355LZzkNKWcSTwWqH+0HK+P41
H4ZC9w8=
-----END CERTIFICATE-----
