Certificate:
    Data:
        Version: 3 (0x2)
        Serial Number: 4097 (0x1001)
    Signature Algorithm: ecdsa-with-SHA256
        Issuer: CN=ecc-3-ca
        Validity
            Not Before: Jun 19 05:54:16 2017 GMT
            Not After : Jun 17 05:54:16 2027 GMT
        Subject: CN=ecc-3-leaf
        Subject Public Key Info:
            Public Key Algorithm: id-ecPublicKey
                Public-Key: (256 bit)
                pub:
                    04:90:e4:28:ec:c1:2f:f6:39:94:ae:d8:29:d0:fe:
                    e9:81:a3:30:7e:29:45:6b:71:af:f2:20:1e:92:1a:
                    f0:a9:6c:bc:86:c6:d2:b8:42:1c:49:80:98:91:e4:
                    a6:08:68:4f:7a:fd:6e:f9:dd:e8:46:6d:ca:21:06:
                    a5:16:33:e6:19
                ASN1 OID: prime256v1
                NIST CURVE: P-256
        X509v3 extensions:
            X509v3 Basic Constraints: 
                CA:FALSE
            X509v3 Subject Key Identifier: 
                E1:12:31:5D:A4:2A:C8:8D:B2:45:5B:D3:2F:28:B0:72:4E:8B:E5:07
            X509v3 Authority Key Identifier: 
                keyid:56:97:4A:CA:89:49:93:EB:FA:D9:8B:27:F0:AC:3F:02:18:5B:9E:EC

    Signature Algorithm: ecdsa-with-SHA256
         30:45:02:21:00:b6:85:2c:df:3a:f1:a3:e0:1d:37:c7:d8:61:
         6e:0c:c1:d9:8f:c6:64:ec:0b:9f:ce:84:a1:4a:cc:bd:ca:fd:
         1d:02:20:69:74:24:e7:a4:a0:eb:0a:ea:a8:e0:f5:c1:e0:78:
         61:de:c8:82:2e:0f:a2:09:f6:5e:69:e7:68:8e:d9:56:29
-----BEGIN CERTIFICATE-----
MIIBZTCCAQugAwIBAgICEAEwCgYIKoZIzj0EAwIwEzERMA8GA1UEAwwIZWNjLTMt
Y2EwHhcNMTcwNjE5MDU1NDE2WhcNMjcwNjE3MDU1NDE2WjAVMRMwEQYDVQQDDApl
Y2MtMy1sZWFmMFkwEwYHKoZIzj0CAQYIKoZIzj0DAQcDQgAEkOQo7MEv9jmUrtgp
0P7pgaMwfilFa3Gv8iAekhrwqWy8hsbSuEIcSYCYkeSmCGhPev1u+d3oRm3KIQal
FjPmGaNNMEswCQYDVR0TBAIwADAdBgNVHQ4EFgQU4RIxXaQqyI2yRVvTLyiwck6L
5QcwHwYDVR0jBBgwFoAUVpdKyolJk+v62Ysn8Kw/AhhbnuwwCgYIKoZIzj0EAwID
SAAwRQIhALaFLN868aPgHTfH2GFuDMHZj8Zk7AufzoShSsy9yv0dAiBpdCTnpKDr
Cuqo4PXB4Hhh3siCLg+iCfZeaedojtlWKQ==
-----END CERTIFICATE-----
