Certificate:
    Data:
        Version: 3 (0x2)
        Serial Number: 4097 (0x1001)
    Signature Algorithm: ecdsa-with-SHA256
        Issuer: CN=ecc-3-ca
        Validity
            Not Before: Apr 11 03:43:38 2017 GMT
            Not After : Apr  9 03:43:38 2027 GMT
        Subject: CN=ecc-3-leaf
        Subject Public Key Info:
            Public Key Algorithm: id-ecPublicKey
                Public-Key: (256 bit)
                pub:
                    04:aa:5f:72:03:dc:2f:1a:84:2e:96:60:07:08:b7:
                    b7:85:95:24:1d:8c:f3:b1:fd:f8:51:24:04:e2:57:
                    8b:75:75:18:f3:5d:0f:5c:f6:69:f3:62:e4:cc:7b:
                    df:84:ae:07:82:9f:cc:5f:13:e0:f9:0e:05:d4:37:
                    92:97:9b:0d:20
                ASN1 OID: prime256v1
                NIST CURVE: P-256
        X509v3 extensions:
            X509v3 Basic Constraints: 
                CA:FALSE
            X509v3 Subject Key Identifier: 
                11:2B:B8:53:00:E0:64:F9:A0:B6:0C:7F:CA:A0:49:CE:2B:8B:4F:60
            X509v3 Authority Key Identifier: 
                keyid:C9:06:6A:EA:68:82:2C:68:71:14:62:A4:39:64:F9:EE:9A:1F:D6:B9

    Signature Algorithm: ecdsa-with-SHA256
         30:45:02:20:3c:5f:3c:fe:aa:b4:d6:05:63:e9:e3:b5:9f:e6:
         15:b2:64:13:11:d9:a6:9a:53:2c:63:ff:d7:97:de:08:60:ec:
         02:21:00:89:ba:e4:29:54:28:cc:63:93:fb:3c:c0:64:85:03:
         9d:99:38:77:e5:55:13:aa:8b:e9:be:3d:84:be:84:5b:1c
-----BEGIN CERTIFICATE-----
MIIBZTCCAQugAwIBAgICEAEwCgYIKoZIzj0EAwIwEzERMA8GA1UEAwwIZWNjLTMt
Y2EwHhcNMTcwNDExMDM0MzM4WhcNMjcwNDA5MDM0MzM4WjAVMRMwEQYDVQQDDApl
Y2MtMy1sZWFmMFkwEwYHKoZIzj0CAQYIKoZIzj0DAQcDQgAEql9yA9wvGoQulmAH
CLe3hZUkHYzzsf34USQE4leLdXUY810PXPZp82LkzHvfhK4Hgp/MXxPg+Q4F1DeS
l5sNIKNNMEswCQYDVR0TBAIwADAdBgNVHQ4EFgQUESu4UwDgZPmgtgx/yqBJziuL
T2AwHwYDVR0jBBgwFoAUyQZq6miCLGhxFGKkOWT57pof1rkwCgYIKoZIzj0EAwID
SAAwRQIgPF88/qq01gVj6eO1n+YVsmQTEdmmmlMsY//Xl94IYOwCIQCJuuQpVCjM
Y5P7PMBkhQOdmTh35VUTqovpvj2EvoRbHA==
-----END CERTIFICATE-----
Certificate:
    Data:
        Version: 3 (0x2)
        Serial Number: 4096 (0x1000)
    Signature Algorithm: ecdsa-with-SHA256
        Issuer: CN=ecc-3-root
        Validity
            Not Before: Apr 11 03:43:38 2017 GMT
            Not After : Apr  9 03:43:38 2027 GMT
        Subject: CN=ecc-3-ca
        Subject Public Key Info:
            Public Key Algorithm: id-ecPublicKey
                Public-Key: (256 bit)
                pub:
                    04:17:47:53:e5:6c:d0:99:70:f9:ff:e4:9c:c8:be:
                    0d:d4:da:3e:bf:dd:a6:b3:67:b4:a9:8b:4a:51:35:
                    71:d9:12:93:ea:72:c2:f8:5a:b7:99:fb:97:f4:5e:
                    ff:8f:17:d3:2b:cf:75:f0:d6:e8:b5:fb:55:b7:26:
                    c3:5f:ed:56:29
                ASN1 OID: prime256v1
                NIST CURVE: P-256
        X509v3 extensions:
            X509v3 Subject Key Identifier: 
                C9:06:6A:EA:68:82:2C:68:71:14:62:A4:39:64:F9:EE:9A:1F:D6:B9
            X509v3 Authority Key Identifier: 
                keyid:2A:03:E4:09:28:4C:FF:57:3B:B4:F6:61:19:36:2A:55:9F:9D:0F:F4
                DirName:/CN=ecc-3-root
                serial:E2:FB:D5:84:36:CE:D6:9D

            X509v3 Basic Constraints: 
                CA:TRUE
    Signature Algorithm: ecdsa-with-SHA256
         30:45:02:20:49:44:77:d9:08:37:03:29:96:a1:bf:3d:c3:79:
         ea:26:3d:60:80:99:04:86:a8:d9:7a:15:9f:d4:36:1a:c7:6f:
         02:21:00:a6:10:f7:8d:27:9e:cd:67:05:32:b3:f3:e8:c4:55:
         a1:d4:05:35:fb:42:2c:54:2e:64:38:2e:ee:2a:f7:df:4e
-----BEGIN CERTIFICATE-----
MIIBjjCCATSgAwIBAgICEAAwCgYIKoZIzj0EAwIwFTETMBEGA1UEAwwKZWNjLTMt
cm9vdDAeFw0xNzA0MTEwMzQzMzhaFw0yNzA0MDkwMzQzMzhaMBMxETAPBgNVBAMM
CGVjYy0zLWNhMFkwEwYHKoZIzj0CAQYIKoZIzj0DAQcDQgAEF0dT5WzQmXD5/+Sc
yL4N1No+v92ms2e0qYtKUTVx2RKT6nLC+Fq3mfuX9F7/jxfTK8918NbotftVtybD
X+1WKaN2MHQwHQYDVR0OBBYEFMkGaupogixocRRipDlk+e6aH9a5MEUGA1UdIwQ+
MDyAFCoD5AkoTP9XO7T2YRk2KlWfnQ/0oRmkFzAVMRMwEQYDVQQDDAplY2MtMy1y
b290ggkA4vvVhDbO1p0wDAYDVR0TBAUwAwEB/zAKBggqhkjOPQQDAgNIADBFAiBJ
RHfZCDcDKZahvz3DeeomPWCAmQSGqNl6FZ/UNhrHbwIhAKYQ940nns1nBTKz8+jE
VaHUBTX7QixULmQ4Lu4q999O
-----END CERTIFICATE-----
