Certificate:
    Data:
        Version: 3 (0x2)
        Serial Number: 4097 (0x1001)
    Signature Algorithm: ecdsa-with-SHA256
        Issuer: CN=ecc-3-ca
        Validity
            Not Before: Apr 11 03:43:38 2017 GMT
            Not After : Apr  9 03:43:38 2027 GMT
        Subject: CN=ecc-3-leaf
        Subject Public Key Info:
            Public Key Algorithm: id-ecPublicKey
                Public-Key: (256 bit)
                pub:
                    04:aa:5f:72:03:dc:2f:1a:84:2e:96:60:07:08:b7:
                    b7:85:95:24:1d:8c:f3:b1:fd:f8:51:24:04:e2:57:
                    8b:75:75:18:f3:5d:0f:5c:f6:69:f3:62:e4:cc:7b:
                    df:84:ae:07:82:9f:cc:5f:13:e0:f9:0e:05:d4:37:
                    92:97:9b:0d:20
                ASN1 OID: prime256v1
                NIST CURVE: P-256
        X509v3 extensions:
            X509v3 Basic Constraints: 
                CA:FALSE
            X509v3 Subject Key Identifier: 
                11:2B:B8:53:00:E0:64:F9:A0:B6:0C:7F:CA:A0:49:CE:2B:8B:4F:60
            X509v3 Authority Key Identifier: 
                keyid:C9:06:6A:EA:68:82:2C:68:71:14:62:A4:39:64:F9:EE:9A:1F:D6:B9

    Signature Algorithm: ecdsa-with-SHA256
         30:45:02:20:3c:5f:3c:fe:aa:b4:d6:05:63:e9:e3:b5:9f:e6:
         15:b2:64:13:11:d9:a6:9a:53:2c:63:ff:d7:97:de:08:60:ec:
         02:21:00:89:ba:e4:29:54:28:cc:63:93:fb:3c:c0:64:85:03:
         9d:99:38:77:e5:55:13:aa:8b:e9:be:3d:84:be:84:5b:1c
-----BEGIN CERTIFICATE-----
MIIBZTCCAQugAwIBAgICEAEwCgYIKoZIzj0EAwIwEzERMA8GA1UEAwwIZWNjLTMt
Y2EwHhcNMTcwNDExMDM0MzM4WhcNMjcwNDA5MDM0MzM4WjAVMRMwEQYDVQQDDApl
Y2MtMy1sZWFmMFkwEwYHKoZIzj0CAQYIKoZIzj0DAQcDQgAEql9yA9wvGoQulmAH
CLe3hZUkHYzzsf34USQE4leLdXUY810PXPZp82LkzHvfhK4Hgp/MXxPg+Q4F1DeS
l5sNIKNNMEswCQYDVR0TBAIwADAdBgNVHQ4EFgQUESu4UwDgZPmgtgx/yqBJziuL
T2AwHwYDVR0jBBgwFoAUyQZq6miCLGhxFGKkOWT57pof1rkwCgYIKoZIzj0EAwID
SAAwRQIgPF88/qq01gVj6eO1n+YVsmQTEdmmmlMsY//Xl94IYOwCIQCJuuQpVCjM
Y5P7PMBkhQOdmTh35VUTqovpvj2EvoRbHA==
-----END CERTIFICATE-----
